target datalayout = "e-m:e-p270:32:32-p271:32:32-p272:64:64-i64:64-i128:128-f80:128-n8:16:32:64-S128"
target triple = "x86_64-pc-linux-gnu"

%struct.RArray = type { %struct.RBasic, %union.anon }
%struct.RBasic = type { i64, i64 }
%union.anon = type { %struct.anon }
%struct.anon = type { i64, %union.anon.0, ptr }
%union.anon.0 = type { i64 }
%struct.slicewhen_arg = type { i64, i64, i64, i64, i32 }

@.str.78 = private unnamed_addr constant [39 x i8] c"../include/ruby/internal/core/rarray.h\00", align 1

; Function Attrs: inlinehint nounwind sspstrong willreturn memory(read) uwtable
define internal i64 @RB_FL_TEST_RAW(i64 noundef %0, i64 noundef %1) #5 {
  %3 = alloca i64, align 8
  %4 = alloca i64, align 8
  store i64 %0, ptr %3, align 8, !tbaa !14
  store i64 %1, ptr %4, align 8, !tbaa !14
  %5 = load i64, ptr %3, align 8, !tbaa !14
  %6 = inttoptr i64 %5 to ptr
  %7 = getelementptr inbounds nuw %struct.RBasic, ptr %6, i32 0, i32 0
  %8 = load i64, ptr %7, align 8, !tbaa !88
  %9 = load i64, ptr %4, align 8, !tbaa !14
  %10 = and i64 %8, %9
  ret i64 %10
}

; Function Attrs: inlinehint nounwind sspstrong willreturn memory(read) uwtable
define internal zeroext i1 @RB_FL_ANY_RAW(i64 noundef %0, i64 noundef %1) #5 {
  %3 = alloca i64, align 8
  %4 = alloca i64, align 8
  store i64 %0, ptr %3, align 8, !tbaa !14
  store i64 %1, ptr %4, align 8, !tbaa !14
  %5 = load i64, ptr %3, align 8, !tbaa !14
  %6 = load i64, ptr %4, align 8, !tbaa !14
  %7 = call i64 @RB_FL_TEST_RAW(i64 noundef %5, i64 noundef %6) #24
  %8 = icmp ne i64 %7, 0
  ret i1 %8
}

; Function Attrs: inlinehint nounwind sspstrong willreturn memory(read) uwtable
define internal ptr @rb_array_const_ptr(i64 noundef %0) #5 {
  %2 = alloca ptr, align 8
  %3 = alloca i64, align 8
  store i64 %0, ptr %3, align 8, !tbaa !14
  %4 = load i64, ptr %3, align 8, !tbaa !14
  %5 = call zeroext i1 @RB_FL_ANY_RAW(i64 noundef %4, i64 noundef 8192) #24
  br i1 %5, label %6, label %11

6:                                                ; preds = %1
  %7 = load i64, ptr %3, align 8, !tbaa !14
  %8 = inttoptr i64 %7 to ptr
  %9 = getelementptr inbounds nuw %struct.RArray, ptr %8, i32 0, i32 1
  %10 = getelementptr inbounds [1 x i64], ptr %9, i64 0, i64 0
  store ptr %10, ptr %2, align 8
  br label %17

11:                                               ; preds = %1
  %12 = load i64, ptr %3, align 8, !tbaa !14
  %13 = inttoptr i64 %12 to ptr
  %14 = getelementptr inbounds nuw %struct.RArray, ptr %13, i32 0, i32 1
  %15 = getelementptr inbounds nuw %struct.anon, ptr %14, i32 0, i32 2
  %16 = load ptr, ptr %15, align 8, !tbaa !31
  store ptr %16, ptr %2, align 8
  br label %17

17:                                               ; preds = %11, %6
  %18 = load ptr, ptr %2, align 8
  ret ptr %18
}

; Function Attrs: inlinehint nounwind sspstrong uwtable
define internal i64 @rb_obj_wb_unprotect(i64 noundef %0, ptr noundef %1, i32 noundef %2) #3 {
  %4 = alloca i64, align 8
  %5 = alloca ptr, align 8
  %6 = alloca i32, align 4
  store i64 %0, ptr %4, align 8, !tbaa !14
  store ptr %1, ptr %5, align 8, !tbaa !86
  store i32 %2, ptr %6, align 4, !tbaa !7
  %7 = load i64, ptr %4, align 8, !tbaa !14
  call void @rb_gc_writebarrier_unprotect(i64 noundef %7)
  %8 = load i64, ptr %4, align 8, !tbaa !14
  ret i64 %8
}

; Function Attrs: inlinehint nounwind sspstrong willreturn memory(none) uwtable
define internal zeroext i1 @RB_TEST(i64 noundef %0) #6 {
  %2 = alloca i64, align 8
  store i64 %0, ptr %2, align 8, !tbaa !14
  %3 = load i64, ptr %2, align 8, !tbaa !14
  %4 = and i64 %3, -5
  %5 = icmp ne i64 %4, 0
  ret i1 %5
}

; Function Attrs: inlinehint nounwind sspstrong willreturn memory(none) uwtable
define internal zeroext i1 @RB_UNDEF_P(i64 noundef %0) #6 {
  %2 = alloca i64, align 8
  store i64 %0, ptr %2, align 8, !tbaa !14
  %3 = load i64, ptr %2, align 8, !tbaa !14
  %4 = icmp eq i64 %3, 36
  ret i1 %4
}

; Function Attrs: nounwind sspstrong uwtable
define dso_local i64 @rb_enum_values_pack(i32 noundef %0, ptr noundef %1) #0 {
  %3 = alloca i64, align 8
  %4 = alloca i32, align 4
  %5 = alloca ptr, align 8
  store i32 %0, ptr %4, align 4, !tbaa !7
  store ptr %1, ptr %5, align 8, !tbaa !11
  %6 = load i32, ptr %4, align 4, !tbaa !7
  %7 = icmp eq i32 %6, 0
  br i1 %7, label %8, label %9

8:                                                ; preds = %2
  store i64 4, ptr %3, align 8
  br label %21

9:                                                ; preds = %2
  %10 = load i32, ptr %4, align 4, !tbaa !7
  %11 = icmp eq i32 %10, 1
  br i1 %11, label %12, label %16

12:                                               ; preds = %9
  %13 = load ptr, ptr %5, align 8, !tbaa !11
  %14 = getelementptr i64, ptr %13, i64 0
  %15 = load i64, ptr %14, align 8, !tbaa !14
  store i64 %15, ptr %3, align 8
  br label %21

16:                                               ; preds = %9
  %17 = load i32, ptr %4, align 4, !tbaa !7
  %18 = sext i32 %17 to i64
  %19 = load ptr, ptr %5, align 8, !tbaa !11
  %20 = call i64 @rb_ary_new_from_values(i64 noundef %18, ptr noundef %19)
  store i64 %20, ptr %3, align 8
  br label %21

21:                                               ; preds = %16, %12, %8
  %22 = load i64, ptr %3, align 8
  ret i64 %22
}

; Function Attrs: inlinehint nounwind sspstrong uwtable
define internal ptr @RARRAY_PTR(i64 noundef %0) #3 {
  %2 = alloca i64, align 8
  %3 = alloca i64, align 8
  store i64 %0, ptr %2, align 8, !tbaa !14
  call void @llvm.lifetime.start.p0(i64 8, ptr %3) #22
  %4 = load i64, ptr %2, align 8, !tbaa !14
  %5 = call i64 @rb_obj_wb_unprotect(i64 noundef %4, ptr noundef @.str.78, i32 noundef 370)
  store i64 %5, ptr %3, align 8, !tbaa !14
  %6 = load i64, ptr %3, align 8, !tbaa !14
  %7 = call ptr @rb_array_const_ptr(i64 noundef %6) #24
  call void @llvm.lifetime.end.p0(i64 8, ptr %3) #22
  ret ptr %7
}

; Function Attrs: nounwind sspstrong uwtable
define internal i64 @slicewhen_ii(i64 noundef %0, i64 noundef %1, i32 noundef %2, ptr noundef %3, i64 noundef %4) #0 {
  %6 = alloca i64, align 8
  %7 = alloca i64, align 8
  %8 = alloca i32, align 4
  %9 = alloca ptr, align 8
  %10 = alloca i64, align 8
  %11 = alloca ptr, align 8
  %12 = alloca i32, align 4
  %13 = alloca [2 x i64], align 16
  store i64 %0, ptr %6, align 8, !tbaa !14
  store i64 %1, ptr %7, align 8, !tbaa !14
  store i32 %2, ptr %8, align 4, !tbaa !7
  store ptr %3, ptr %9, align 8, !tbaa !11
  store i64 %4, ptr %10, align 8, !tbaa !14
  call void @llvm.lifetime.start.p0(i64 8, ptr %11) #22
  call void @llvm.lifetime.start.p0(i64 4, ptr %12) #22
  %14 = load i64, ptr %7, align 8, !tbaa !14
  %15 = call ptr @RARRAY_PTR(i64 noundef %14)
  store ptr %15, ptr %11, align 8, !tbaa !154
  br label %16

16:                                               ; preds = %5
  %17 = load i32, ptr %8, align 4, !tbaa !7
  %18 = load ptr, ptr %9, align 8, !tbaa !11
  %19 = call i64 @rb_enum_values_pack(i32 noundef %17, ptr noundef %18)
  store i64 %19, ptr %6, align 8, !tbaa !14
  br label %20

20:                                               ; preds = %16
  br label %21

21:                                               ; preds = %20
  %22 = load ptr, ptr %11, align 8, !tbaa !154
  %23 = getelementptr inbounds nuw %struct.slicewhen_arg, ptr %22, i32 0, i32 1
  %24 = load i64, ptr %23, align 8, !tbaa !158
  %25 = call zeroext i1 @RB_UNDEF_P(i64 noundef %24) #25
  br i1 %25, label %26, label %34

26:                                               ; preds = %21
  %27 = load i64, ptr %6, align 8, !tbaa !14
  %28 = load ptr, ptr %11, align 8, !tbaa !154
  %29 = getelementptr inbounds nuw %struct.slicewhen_arg, ptr %28, i32 0, i32 1
  store i64 %27, ptr %29, align 8, !tbaa !158
  %30 = load i64, ptr %6, align 8, !tbaa !14
  %31 = call i64 (i64, ...) @rb_ary_new_from_args(i64 noundef 1, i64 noundef %30)
  %32 = load ptr, ptr %11, align 8, !tbaa !154
  %33 = getelementptr inbounds nuw %struct.slicewhen_arg, ptr %32, i32 0, i32 2
  store i64 %31, ptr %33, align 8, !tbaa !159
  br label %85

34:                                               ; preds = %21
  call void @llvm.lifetime.start.p0(i64 16, ptr %13) #22
  %35 = load ptr, ptr %11, align 8, !tbaa !154
  %36 = getelementptr inbounds nuw %struct.slicewhen_arg, ptr %35, i32 0, i32 1
  %37 = load i64, ptr %36, align 8, !tbaa !158
  %38 = getelementptr [2 x i64], ptr %13, i64 0, i64 0
  store i64 %37, ptr %38, align 16, !tbaa !14
  %39 = load i64, ptr %6, align 8, !tbaa !14
  %40 = getelementptr [2 x i64], ptr %13, i64 0, i64 1
  store i64 %39, ptr %40, align 8, !tbaa !14
  %41 = load ptr, ptr %11, align 8, !tbaa !154
  %42 = getelementptr inbounds nuw %struct.slicewhen_arg, ptr %41, i32 0, i32 0
  %43 = load i64, ptr %42, align 8, !tbaa !156
  %44 = getelementptr inbounds [2 x i64], ptr %13, i64 0, i64 0
  %45 = call i64 @rb_funcallv(i64 noundef %43, i64 noundef 3457, i32 noundef 2, ptr noundef %44)
  %46 = call zeroext i1 @RB_TEST(i64 noundef %45) #25
  %47 = zext i1 %46 to i32
  store i32 %47, ptr %12, align 4, !tbaa !7
  %48 = load i64, ptr %7, align 8, !tbaa !14
  %49 = call ptr @RARRAY_PTR(i64 noundef %48)
  store ptr %49, ptr %11, align 8, !tbaa !154
  %50 = load ptr, ptr %11, align 8, !tbaa !154
  %51 = getelementptr inbounds nuw %struct.slicewhen_arg, ptr %50, i32 0, i32 4
  %52 = load i32, ptr %51, align 8, !tbaa !161
  %53 = icmp ne i32 %52, 0
  br i1 %53, label %54, label %59

54:                                               ; preds = %34
  %55 = load i32, ptr %12, align 4, !tbaa !7
  %56 = icmp ne i32 %55, 0
  %57 = xor i1 %56, true
  %58 = zext i1 %57 to i32
  store i32 %58, ptr %12, align 4, !tbaa !7
  br label %59

59:                                               ; preds = %54, %34
  %60 = load i32, ptr %12, align 4, !tbaa !7
  %61 = icmp ne i32 %60, 0
  br i1 %61, label %62, label %75

62:                                               ; preds = %59
  %63 = load ptr, ptr %11, align 8, !tbaa !154
  %64 = getelementptr inbounds nuw %struct.slicewhen_arg, ptr %63, i32 0, i32 3
  %65 = load i64, ptr %64, align 8, !tbaa !160
  %66 = load ptr, ptr %11, align 8, !tbaa !154
  %67 = getelementptr inbounds nuw %struct.slicewhen_arg, ptr %66, i32 0, i32 2
  %68 = call i64 @rb_funcallv(i64 noundef %65, i64 noundef 136, i32 noundef 1, ptr noundef %67)
  %69 = load i64, ptr %7, align 8, !tbaa !14
  %70 = call ptr @RARRAY_PTR(i64 noundef %69)
  store ptr %70, ptr %11, align 8, !tbaa !154
  %71 = load i64, ptr %6, align 8, !tbaa !14
  %72 = call i64 (i64, ...) @rb_ary_new_from_args(i64 noundef 1, i64 noundef %71)
  %73 = load ptr, ptr %11, align 8, !tbaa !154
  %74 = getelementptr inbounds nuw %struct.slicewhen_arg, ptr %73, i32 0, i32 2
  store i64 %72, ptr %74, align 8, !tbaa !159
  br label %81

75:                                               ; preds = %59
  %76 = load ptr, ptr %11, align 8, !tbaa !154
  %77 = getelementptr inbounds nuw %struct.slicewhen_arg, ptr %76, i32 0, i32 2
  %78 = load i64, ptr %77, align 8, !tbaa !159
  %79 = load i64, ptr %6, align 8, !tbaa !14
  %80 = call i64 @rb_ary_push(i64 noundef %78, i64 noundef %79)
  br label %81

81:                                               ; preds = %75, %62
  %82 = load i64, ptr %6, align 8, !tbaa !14
  %83 = load ptr, ptr %11, align 8, !tbaa !154
  %84 = getelementptr inbounds nuw %struct.slicewhen_arg, ptr %83, i32 0, i32 1
  store i64 %82, ptr %84, align 8, !tbaa !158
  call void @llvm.lifetime.end.p0(i64 16, ptr %13) #22
  br label %85

85:                                               ; preds = %81, %26
  call void @llvm.lifetime.end.p0(i64 4, ptr %12) #22
  call void @llvm.lifetime.end.p0(i64 8, ptr %11) #22
  ret i64 4
}