; Function Attrs: nounwind sspstrong uwtable
define internal noundef i64 @slicewhen_ii(i64 %0, i64 noundef %1, i32 noundef %2, ptr noundef %3, i64 %4) #0 {
  %6 = alloca [2 x i64], align 16
  tail call void @rb_gc_writebarrier_unprotect(i64 noundef %1) #14
  %7 = inttoptr i64 %1 to ptr
  %8 = load i64, ptr %7, align 8, !tbaa !20
  %9 = and i64 %8, 8192
  %.not.i.i = icmp eq i64 %9, 0
  br i1 %.not.i.i, label %12, label %10

10:                                               ; preds = %5
  %11 = getelementptr inbounds nuw i8, ptr %7, i64 16
  br label %RARRAY_PTR.exit

12:                                               ; preds = %5
  %13 = getelementptr inbounds nuw i8, ptr %7, i64 32
  %14 = load ptr, ptr %13, align 8, !tbaa !22
  br label %RARRAY_PTR.exit

RARRAY_PTR.exit:                                  ; preds = %10, %12
  %.0.i.i = phi ptr [ %11, %10 ], [ %14, %12 ]
  switch i32 %2, label %17 [
    i32 0, label %rb_enum_values_pack.exit
    i32 1, label %15
  ]

15:                                               ; preds = %RARRAY_PTR.exit
  %16 = load i64, ptr %3, align 8, !tbaa !7
  br label %rb_enum_values_pack.exit

17:                                               ; preds = %RARRAY_PTR.exit
  %18 = sext i32 %2 to i64
  %19 = tail call i64 @rb_ary_new_from_values(i64 noundef %18, ptr noundef %3) #14
  br label %rb_enum_values_pack.exit

rb_enum_values_pack.exit:                         ; preds = %RARRAY_PTR.exit, %15, %17
  %.0.i = phi i64 [ %16, %15 ], [ %19, %17 ], [ 4, %RARRAY_PTR.exit ]
  %20 = getelementptr inbounds nuw i8, ptr %.0.i.i, i64 8
  %21 = load i64, ptr %20, align 8, !tbaa !141
  %22 = icmp eq i64 %21, 36
  br i1 %22, label %23, label %26

23:                                               ; preds = %rb_enum_values_pack.exit
  store i64 %.0.i, ptr %20, align 8, !tbaa !141
  %24 = tail call i64 (i64, ...) @rb_ary_new_from_args(i64 noundef 1, i64 noundef %.0.i) #14
  %25 = getelementptr inbounds nuw i8, ptr %.0.i.i, i64 16
  store i64 %24, ptr %25, align 8, !tbaa !142
  br label %61

26:                                               ; preds = %rb_enum_values_pack.exit
  call void @llvm.lifetime.start.p0(i64 16, ptr nonnull %6) #14
  store i64 %21, ptr %6, align 16, !tbaa !7
  %27 = getelementptr inbounds nuw i8, ptr %6, i64 8
  store i64 %.0.i, ptr %27, align 8, !tbaa !7
  %28 = load i64, ptr %.0.i.i, align 8, !tbaa !139
  %29 = call i64 @rb_funcallv(i64 noundef %28, i64 noundef 3457, i32 noundef 2, ptr noundef nonnull %6) #14
  %30 = and i64 %29, -5
  %31 = icmp ne i64 %30, 0
  call void @rb_gc_writebarrier_unprotect(i64 noundef %1) #14
  %32 = load i64, ptr %7, align 8, !tbaa !20
  %33 = and i64 %32, 8192
  %.not.i.i24 = icmp eq i64 %33, 0
  br i1 %.not.i.i24, label %36, label %34

34:                                               ; preds = %26
  %35 = getelementptr inbounds nuw i8, ptr %7, i64 16
  br label %RARRAY_PTR.exit26

36:                                               ; preds = %26
  %37 = getelementptr inbounds nuw i8, ptr %7, i64 32
  %38 = load ptr, ptr %37, align 8, !tbaa !22
  br label %RARRAY_PTR.exit26

RARRAY_PTR.exit26:                                ; preds = %34, %36
  %.0.i.i25 = phi ptr [ %35, %34 ], [ %38, %36 ]
  %39 = getelementptr inbounds nuw i8, ptr %.0.i.i25, i64 32
  %40 = load i32, ptr %39, align 8, !tbaa !144
  %.not = icmp ne i32 %40, 0
  %spec.select = xor i1 %31, %.not
  br i1 %spec.select, label %41, label %55

41:                                               ; preds = %RARRAY_PTR.exit26
  %42 = getelementptr inbounds nuw i8, ptr %.0.i.i25, i64 24
  %43 = load i64, ptr %42, align 8, !tbaa !143
  %44 = getelementptr inbounds nuw i8, ptr %.0.i.i25, i64 16
  %45 = call i64 @rb_funcallv(i64 noundef %43, i64 noundef 136, i32 noundef 1, ptr noundef nonnull %44) #14
  call void @rb_gc_writebarrier_unprotect(i64 noundef %1) #14
  %46 = load i64, ptr %7, align 8, !tbaa !20
  %47 = and i64 %46, 8192
  %.not.i.i27 = icmp eq i64 %47, 0
  br i1 %.not.i.i27, label %50, label %48

48:                                               ; preds = %41
  %49 = getelementptr inbounds nuw i8, ptr %7, i64 16
  br label %RARRAY_PTR.exit29

50:                                               ; preds = %41
  %51 = getelementptr inbounds nuw i8, ptr %7, i64 32
  %52 = load ptr, ptr %51, align 8, !tbaa !22
  br label %RARRAY_PTR.exit29

RARRAY_PTR.exit29:                                ; preds = %48, %50
  %.0.i.i28 = phi ptr [ %49, %48 ], [ %52, %50 ]
  %53 = call i64 (i64, ...) @rb_ary_new_from_args(i64 noundef 1, i64 noundef %.0.i) #14
  %54 = getelementptr inbounds nuw i8, ptr %.0.i.i28, i64 16
  store i64 %53, ptr %54, align 8, !tbaa !142
  br label %59

55:                                               ; preds = %RARRAY_PTR.exit26
  %56 = getelementptr inbounds nuw i8, ptr %.0.i.i25, i64 16
  %57 = load i64, ptr %56, align 8, !tbaa !142
  %58 = call i64 @rb_ary_push(i64 noundef %57, i64 noundef %.0.i) #14
  br label %59

59:                                               ; preds = %55, %RARRAY_PTR.exit29
  %.023 = phi ptr [ %.0.i.i28, %RARRAY_PTR.exit29 ], [ %.0.i.i25, %55 ]
  %60 = getelementptr inbounds nuw i8, ptr %.023, i64 8
  store i64 %.0.i, ptr %60, align 8, !tbaa !141
  call void @llvm.lifetime.end.p0(i64 16, ptr nonnull %6) #14
  br label %61

61:                                               ; preds = %59, %23
  ret i64 4
}